(dp0
S'Swedish'
p1
(dp2
S'a'
p3
F0.09340999999999999
sS'c'
p4
F0.01213
sS'b'
p5
F0.01254
sS'e'
p6
F0.09647
sS'd'
p7
F0.04521
sS'g'
p8
F0.032690000000000004
sS'f'
p9
F0.01931
sS'i'
p10
F0.0719
sS'h'
p11
F0.021030000000000004
sS'k'
p12
F0.03214
sS'j'
p13
F0.006520000000000001
sS'm'
p14
F0.0346
sS'l'
p15
F0.05229
sS'o'
p16
F0.04317
sS'n'
p17
F0.08796
sS'q'
p18
F7.000000000000001e-05
sS'p'
p19
F0.01437
sS's'
p20
F0.06373999999999999
sS'r'
p21
F0.08309
sS'u'
p22
F0.020659999999999998
sS't'
p23
F0.08693
sS'w'
p24
F0.021070000000000002
sS'v'
p25
F0.02289
sS'y'
p26
F0.00601
sS'x'
p27
F0.0010299999999999999
sS'z'
p28
F0.0002
ssS'Turkish'
p29
(dp30
g3
F0.1168
sg4
F0.0097
sg5
F0.02952
sg6
F0.09007
sg7
F0.04871
sg8
F0.0134
sg9
F0.00444
sg10
F0.08274
sg11
F0.01145
sg12
F0.04715
sg13
F0.00046
sg14
F0.037450000000000004
sg15
F0.057519999999999995
sg16
F0.02653
sg17
F0.07231
sg18
F0.0
sg19
F0.00788
sg20
F0.029500000000000002
sg21
F0.06948
sg22
F0.034300000000000004
sg23
F0.03049
sg24
F0.00016
sg25
F0.00977
sg26
F0.03371
sg27
F7.000000000000001e-05
sg28
F0.01497
ssS'Portuguese '
p31
(dp32
g3
F0.14634
sg4
F0.03882
sg5
F0.01043
sg6
F0.1257
sg7
F0.04992
sg8
F0.01303
sg9
F0.01023
sg10
F0.06186
sg11
F0.00781
sg12
F0.00015
sg13
F0.0039700000000000004
sg14
F0.047380000000000005
sg15
F0.02779
sg16
F0.10735
sg17
F0.050460000000000005
sg18
F0.01204
sg19
F0.025230000000000002
sg20
F0.07805
sg21
F0.0653
sg22
F0.046340000000000006
sg23
F0.04736
sg24
F0.00037
sg25
F0.01665
sg26
F6e-05
sg27
F0.00253
sg28
F0.004699999999999999
ssS'english'
p33
(dp34
g3
F0.08166999999999999
sg4
F0.02782
sg5
F0.01492
sg6
F0.12702
sg7
F0.04253
sg8
F0.02015
sg9
F0.02228
sg10
F0.06966
sg11
F0.06094
sg12
F0.00772
sg13
F0.00153
sg14
F0.02406
sg15
F0.04025
sg16
F0.07507
sg17
F0.06749
sg18
F0.00095
sg19
F0.01929
sg20
F0.06326999999999999
sg21
F0.05987
sg22
F0.02758
sg23
F0.09055999999999999
sg24
F0.0236
sg25
F0.00978
sg26
F0.01974
sg27
F0.0015
sg28
F0.00074
ssS'German '
p35
(dp36
g3
F0.06516
sg4
F0.02732
sg5
F0.01886
sg6
F0.17396
sg7
F0.05076
sg8
F0.03009
sg9
F0.01656
sg10
F0.0755
sg11
F0.047569999999999994
sg12
F0.01417
sg13
F0.00268
sg14
F0.025339999999999998
sg15
F0.03437
sg16
F0.025939999999999998
sg17
F0.09776
sg18
F0.00017999999999999998
sg19
F0.0067
sg20
F0.07273
sg21
F0.07003
sg22
F0.04346
sg23
F0.06154
sg24
F0.01921
sg25
F0.00846
sg26
F0.00039
sg27
F0.00034
sg28
F0.01134
ssS'French'
p37
(dp38
g3
F0.07636
sg4
F0.0326
sg5
F0.00901
sg6
F0.14715
sg7
F0.03669
sg8
F0.00866
sg9
F0.010660000000000001
sg10
F0.07529
sg11
F0.00737
sg12
F0.00049
sg13
F0.00545
sg14
F0.029679999999999998
sg15
F0.054560000000000004
sg16
F0.05378
sg17
F0.07095
sg18
F0.01362
sg19
F0.02521
sg20
F0.07948000000000001
sg21
F0.06553
sg22
F0.06311
sg23
F0.07244
sg24
F0.00074
sg25
F0.01628
sg26
F0.00128
sg27
F0.0042699999999999995
sg28
F0.0032600000000000003
ssS'Dutch \n'
p39
(dp40
g3
F0.07486
sg4
F0.01242
sg5
F0.01584
sg6
F0.18914
sg7
F0.05933
sg8
F0.03403
sg9
F0.00805
sg10
F0.06498999999999999
sg11
F0.023799999999999998
sg12
F0.022480000000000003
sg13
F0.014610000000000001
sg14
F0.02213
sg15
F0.03568
sg16
F0.060629999999999996
sg17
F0.10032
sg18
F8.999999999999999e-05
sg19
F0.0137
sg20
F0.05733
sg21
F0.06411
sg22
F0.021920000000000002
sg23
F0.06923
sg24
F0.01821
sg25
F0.01854
sg26
F0.00035000000000000005
sg27
F0.00035999999999999997
sg28
F0.01374
ssS'Esperanto '
p41
(dp42
g3
F0.12117000000000001
sg4
F0.00776
sg5
F0.0098
sg6
F0.08994999999999999
sg7
F0.030440000000000002
sg8
F0.01171
sg9
F0.010369999999999999
sg10
F0.10012
sg11
F0.00384
sg12
F0.04163
sg13
F0.03501
sg14
F0.02994
sg15
F0.06145
sg16
F0.08778999999999999
sg17
F0.07955
sg18
F0.0
sg19
F0.027450000000000002
sg20
F0.060919999999999995
sg21
F0.05914
sg22
F0.03183
sg23
F0.05276
sg24
F0.0
sg25
F0.019039999999999998
sg26
F0.0
sg27
F0.0
sg28
F0.00494
ssS'Spanish'
p43
(dp44
g3
F0.12525
sg4
F0.04139
sg5
F0.02215
sg6
F0.13681
sg7
F0.058600000000000006
sg8
F0.01768
sg9
F0.006919999999999999
sg10
F0.06247
sg11
F0.00703
sg12
F0.00010999999999999999
sg13
F0.00443
sg14
F0.03157
sg15
F0.04967
sg16
F0.08683
sg17
F0.06712
sg18
F0.00877
sg19
F0.025099999999999997
sg20
F0.07977000000000001
sg21
F0.06871000000000001
sg22
F0.03927
sg23
F0.04632
sg24
F0.00017
sg25
F0.01138
sg26
F0.01008
sg27
F0.00215
sg28
F0.00517
ssS'Polish'
p45
(dp46
g3
F0.11503000000000001
sg4
F0.03895
sg5
F0.0174
sg6
F0.08352
sg7
F0.042249999999999996
sg8
F0.017310000000000002
sg9
F0.0014299999999999998
sg10
F0.09327999999999999
sg11
F0.01015
sg12
F0.027530000000000002
sg13
F0.01836
sg14
F0.025150000000000002
sg15
F0.03064
sg16
F0.07167
sg17
F0.06737
sg18
F0.0
sg19
F0.02445
sg20
F0.062240000000000004
sg21
F0.05743
sg22
F0.02062
sg23
F0.02475
sg24
F0.06312999999999999
sg25
F0.0
sg26
F0.03206
sg27
F0.0
sg28
F0.05852
ssS'Italian'
p47
(dp48
g3
F0.11745
sg4
F0.04501
sg5
F0.00927
sg6
F0.11792
sg7
F0.037360000000000004
sg8
F0.01644
sg9
F0.01153
sg10
F0.11283
sg11
F0.00636
sg12
F8.999999999999999e-05
sg13
F0.00010999999999999999
sg14
F0.02512
sg15
F0.06509999999999999
sg16
F0.09832
sg17
F0.06883
sg18
F0.00505
sg19
F0.03056
sg20
F0.04981
sg21
F0.06367
sg22
F0.03011
sg23
F0.05623
sg24
F0.00033
sg25
F0.02097
sg26
F0.0002
sg27
F0.0
sg28
F0.011810000000000001
ss.